; Function Attrs: null_pointer_is_valid sspstrong uwtable
define internal fastcc void @dissect_peekremote_flags(ptr noundef %0, ptr noundef %1, i32 noundef range(i32 6, 46) %2) unnamed_addr #0 {
  %4 = load i32, ptr @hf_peekremote_flags, align 4
  %5 = tail call ptr @proto_tree_add_item(ptr noundef %1, i32 noundef %4, ptr noundef %0, i32 noundef %2, i32 noundef 1, i32 noundef 0)
  %6 = load i32, ptr @ett_peekremote_flags, align 4
  %7 = tail call ptr @proto_item_add_subtree(ptr noundef %5, i32 noundef %6)
  %8 = load i32, ptr @hf_peekremote_flags_control_frame, align 4
  %9 = tail call ptr @proto_tree_add_item(ptr noundef %7, i32 noundef %8, ptr noundef %0, i32 noundef %2, i32 noundef 1, i32 noundef 0)
  %10 = load i32, ptr @hf_peekremote_flags_crc_error, align 4
  %11 = tail call ptr @proto_tree_add_item(ptr noundef %7, i32 noundef %10, ptr noundef %0, i32 noundef %2, i32 noundef 1, i32 noundef 0)
  %12 = load i32, ptr @hf_peekremote_flags_frame_error, align 4
  %13 = tail call ptr @proto_tree_add_item(ptr noundef %7, i32 noundef %12, ptr noundef %0, i32 noundef %2, i32 noundef 1, i32 noundef 0)
  %14 = load i32, ptr @hf_peekremote_flags_6ghz_band_valid, align 4
  %15 = tail call ptr @proto_tree_add_item(ptr noundef %7, i32 noundef %14, ptr noundef %0, i32 noundef %2, i32 noundef 1, i32 noundef 0)
  %16 = load i32, ptr @hf_peekremote_flags_6ghz, align 4
  %17 = tail call ptr @proto_tree_add_item(ptr noundef %7, i32 noundef %16, ptr noundef %0, i32 noundef %2, i32 noundef 1, i32 noundef 0)
  %18 = load i32, ptr @hf_peekremote_flags_reserved, align 4
  %19 = tail call ptr @proto_tree_add_item(ptr noundef %7, i32 noundef %18, ptr noundef %0, i32 noundef %2, i32 noundef 1, i32 noundef 0)
  ret void
}